; Function Attrs: nounwind uwtable
define ptr @l_Lean_Elab_elabSetOption___rarg___lambda__4(ptr noundef %0, ptr noundef %1, ptr noundef %2, ptr noundef %3, ptr noundef %4, ptr noundef %5, ptr noundef %6, ptr noundef %7, ptr noundef %8, ptr readnone captures(none) %9) local_unnamed_addr #0 {
  %11 = tail call ptr @l_Lean_Syntax_getId(ptr noundef %0) #4
  %12 = tail call ptr @lean_erase_macro_scopes(ptr noundef %11) #4
  tail call void @lean_inc_heartbeat() #4
  %13 = tail call noalias ptr @mi_malloc_small(i64 noundef 32) #4
  %14 = icmp eq ptr %13, null
  br i1 %14, label %15, label %lean_alloc_closure.exit

15:                                               ; preds = %10
  tail call void @lean_internal_panic_out_of_memory() #5
  unreachable

lean_alloc_closure.exit:                          ; preds = %10
  %16 = getelementptr inbounds nuw i8, ptr %13, i64 4
  store i32 1, ptr %13, align 4, !tbaa !8
  store i32 -184549344, ptr %16, align 4
  %17 = getelementptr inbounds nuw i8, ptr %13, i64 8
  store ptr @l_Lean_Elab_elabSetOption___rarg___lambda__1, ptr %17, align 8, !tbaa !4
  %18 = getelementptr inbounds nuw i8, ptr %13, i64 16
  store i16 2, ptr %18, align 8, !tbaa !12
  %19 = getelementptr inbounds nuw i8, ptr %13, i64 18
  store i16 1, ptr %19, align 2, !tbaa !12
  %20 = getelementptr inbounds nuw i8, ptr %13, i64 24
  store ptr %1, ptr %20, align 8, !tbaa !4
  %21 = ptrtoint ptr %12 to i64
  %22 = and i64 %21, 1
  %.not = icmp eq i64 %22, 0
  br i1 %.not, label %23, label %lean_inc.exit34

23:                                               ; preds = %lean_alloc_closure.exit
  %.val.i = load i32, ptr %12, align 4, !tbaa !8
  %24 = icmp sgt i32 %.val.i, 0
  br i1 %24, label %25, label %27, !prof !11

25:                                               ; preds = %23
  %26 = add nuw i32 %.val.i, 1
  store i32 %26, ptr %12, align 4, !tbaa !8
  br label %lean_inc.exit34

27:                                               ; preds = %23
  %.not.i = icmp eq i32 %.val.i, 0
  br i1 %.not.i, label %lean_inc.exit34, label %28

28:                                               ; preds = %27
  tail call void @lean_inc_ref_cold(ptr noundef nonnull %12) #4
  br label %lean_inc.exit34

lean_inc.exit34:                                  ; preds = %28, %27, %25, %lean_alloc_closure.exit
  tail call void @lean_inc_heartbeat() #4
  %29 = tail call noalias ptr @mi_malloc_small(i64 noundef 32) #4
  %30 = icmp eq ptr %29, null
  br i1 %30, label %31, label %lean_alloc_closure.exit35

31:                                               ; preds = %lean_inc.exit34
  tail call void @lean_internal_panic_out_of_memory() #5
  unreachable

lean_alloc_closure.exit35:                        ; preds = %lean_inc.exit34
  %32 = getelementptr inbounds nuw i8, ptr %29, i64 4
  store i32 1, ptr %29, align 4, !tbaa !8
  store i32 -184549344, ptr %32, align 4
  %33 = getelementptr inbounds nuw i8, ptr %29, i64 8
  store ptr @l_Lean_getOptionDecl, ptr %33, align 8, !tbaa !4
  %34 = getelementptr inbounds nuw i8, ptr %29, i64 16
  store i16 2, ptr %34, align 8, !tbaa !12
  %35 = getelementptr inbounds nuw i8, ptr %29, i64 18
  store i16 1, ptr %35, align 2, !tbaa !12
  %36 = getelementptr inbounds nuw i8, ptr %29, i64 24
  store ptr %12, ptr %36, align 8, !tbaa !4
  tail call void @lean_inc_heartbeat() #4
  %37 = tail call noalias ptr @mi_malloc_small(i64 noundef 40) #4
  %38 = icmp eq ptr %37, null
  br i1 %38, label %39, label %lean_alloc_closure.exit36

39:                                               ; preds = %lean_alloc_closure.exit35
  tail call void @lean_internal_panic_out_of_memory() #5
  unreachable

lean_alloc_closure.exit36:                        ; preds = %lean_alloc_closure.exit35
  %40 = getelementptr inbounds nuw i8, ptr %37, i64 4
  store i32 1, ptr %37, align 4, !tbaa !8
  store i32 -184549336, ptr %40, align 4
  %41 = getelementptr inbounds nuw i8, ptr %37, i64 8
  store ptr @l_IO_toEIO___rarg, ptr %41, align 8, !tbaa !4
  %42 = getelementptr inbounds nuw i8, ptr %37, i64 16
  store i16 3, ptr %42, align 8, !tbaa !12
  %43 = getelementptr inbounds nuw i8, ptr %37, i64 18
  store i16 2, ptr %43, align 2, !tbaa !12
  %44 = getelementptr inbounds nuw i8, ptr %37, i64 24
  store ptr %13, ptr %44, align 8, !tbaa !4
  %45 = getelementptr inbounds nuw i8, ptr %37, i64 32
  store ptr %29, ptr %45, align 8, !tbaa !4
  %46 = tail call ptr @lean_apply_2(ptr noundef %2, ptr noundef nonnull inttoptr (i64 1 to ptr), ptr noundef nonnull %37) #4
  %47 = ptrtoint ptr %8 to i64
  %48 = and i64 %47, 1
  %.not41 = icmp eq i64 %48, 0
  br i1 %.not41, label %49, label %lean_inc.exit

49:                                               ; preds = %lean_alloc_closure.exit36
  %.val.i37 = load i32, ptr %8, align 4, !tbaa !8
  %50 = icmp sgt i32 %.val.i37, 0
  br i1 %50, label %51, label %53, !prof !11

51:                                               ; preds = %49
  %52 = add nuw i32 %.val.i37, 1
  store i32 %52, ptr %8, align 4, !tbaa !8
  br label %lean_inc.exit

53:                                               ; preds = %49
  %.not.i38 = icmp eq i32 %.val.i37, 0
  br i1 %.not.i38, label %lean_inc.exit, label %54

54:                                               ; preds = %53
  tail call void @lean_inc_ref_cold(ptr noundef nonnull %8) #4
  br label %lean_inc.exit

lean_inc.exit:                                    ; preds = %54, %53, %51, %lean_alloc_closure.exit36
  tail call void @lean_inc_heartbeat() #4
  %55 = tail call noalias ptr @mi_malloc_small(i64 noundef 88) #4
  %56 = icmp eq ptr %55, null
  br i1 %56, label %57, label %lean_alloc_closure.exit40

57:                                               ; preds = %lean_inc.exit
  tail call void @lean_internal_panic_out_of_memory() #5
  unreachable

lean_alloc_closure.exit40:                        ; preds = %lean_inc.exit
  %58 = getelementptr inbounds nuw i8, ptr %55, i64 4
  store i32 1, ptr %55, align 4, !tbaa !8
  store i32 -184549288, ptr %58, align 4
  %59 = getelementptr inbounds nuw i8, ptr %55, i64 8
  store ptr @l_Lean_Elab_elabSetOption___rarg___lambda__3, ptr %59, align 8, !tbaa !4
  %60 = getelementptr inbounds nuw i8, ptr %55, i64 16
  store i16 9, ptr %60, align 8, !tbaa !12
  %61 = getelementptr inbounds nuw i8, ptr %55, i64 18
  store i16 8, ptr %61, align 2, !tbaa !12
  %62 = getelementptr inbounds nuw i8, ptr %55, i64 24
  store ptr %0, ptr %62, align 8, !tbaa !4
  %63 = getelementptr inbounds nuw i8, ptr %55, i64 32
  store ptr %12, ptr %63, align 8, !tbaa !4
  %64 = getelementptr inbounds nuw i8, ptr %55, i64 40
  store ptr %3, ptr %64, align 8, !tbaa !4
  %65 = getelementptr inbounds nuw i8, ptr %55, i64 48
  store ptr %4, ptr %65, align 8, !tbaa !4
  %66 = getelementptr inbounds nuw i8, ptr %55, i64 56
  store ptr %5, ptr %66, align 8, !tbaa !4
  %67 = getelementptr inbounds nuw i8, ptr %55, i64 64
  store ptr %6, ptr %67, align 8, !tbaa !4
  %68 = getelementptr inbounds nuw i8, ptr %55, i64 72
  store ptr %7, ptr %68, align 8, !tbaa !4
  %69 = getelementptr inbounds nuw i8, ptr %55, i64 80
  store ptr %8, ptr %69, align 8, !tbaa !4
  %70 = tail call ptr @lean_apply_4(ptr noundef %8, ptr noundef nonnull inttoptr (i64 1 to ptr), ptr noundef nonnull inttoptr (i64 1 to ptr), ptr noundef %46, ptr noundef nonnull %55) #4
  ret ptr %70
}